target datalayout = "e-m:e-p270:32:32-p271:32:32-p272:64:64-i64:64-i128:128-f80:128-n8:16:32:64-S128"
target triple = "x86_64-pc-linux-gnu"

%struct.RBasic = type { i64, i64 }

@rb_eArgError = external global i64, align 8
@.str.192 = private unnamed_addr constant [41 x i8] c"environment name contains a equal : %li\0B\00", align 1
@.str.193 = private unnamed_addr constant [5 x i8] c"PATH\00", align 1

; Function Attrs: inlinehint nounwind sspstrong uwtable
define internal void @RBASIC_SET_CLASS_RAW(i64 noundef %0, i64 noundef %1) #1 {
  %3 = alloca i64, align 8
  %4 = alloca i64, align 8
  %5 = alloca ptr, align 8
  store i64 %0, ptr %3, align 8, !tbaa !35
  store i64 %1, ptr %4, align 8, !tbaa !35
  call void @llvm.lifetime.start.p0(i64 8, ptr %5) #27
  %6 = load i64, ptr %3, align 8, !tbaa !35
  %7 = inttoptr i64 %6 to ptr
  %8 = getelementptr inbounds nuw %struct.RBasic, ptr %7, i32 0, i32 1
  store ptr %8, ptr %5, align 8, !tbaa !70
  %9 = load i64, ptr %4, align 8, !tbaa !35
  %10 = load ptr, ptr %5, align 8, !tbaa !70
  store i64 %9, ptr %10, align 8, !tbaa !35
  call void @llvm.lifetime.end.p0(i64 8, ptr %5) #27
  ret void
}

; Function Attrs: inlinehint nounwind sspstrong uwtable
define internal void @RBASIC_CLEAR_CLASS(i64 noundef %0) #1 {
  %2 = alloca i64, align 8
  store i64 %0, ptr %2, align 8, !tbaa !35
  %3 = load i64, ptr %2, align 8, !tbaa !35
  call void @RBASIC_SET_CLASS_RAW(i64 noundef %3, i64 noundef 0)
  ret void
}

; Function Attrs: nounwind sspstrong uwtable
define internal i64 @hide_obj(i64 noundef %0) #0 {
  %2 = alloca i64, align 8
  store i64 %0, ptr %2, align 8, !tbaa !35
  %3 = load i64, ptr %2, align 8, !tbaa !35
  call void @RBASIC_CLEAR_CLASS(i64 noundef %3)
  %4 = load i64, ptr %2, align 8, !tbaa !35
  ret i64 %4
}

; Function Attrs: inlinehint nounwind sspstrong willreturn memory(none) uwtable
define internal zeroext i1 @RB_NIL_P(i64 noundef %0) #4 {
  %2 = alloca i64, align 8
  store i64 %0, ptr %2, align 8, !tbaa !35
  %3 = load i64, ptr %2, align 8, !tbaa !35
  %4 = icmp eq i64 %3, 4
  ret i1 %4
}

; Function Attrs: nounwind sspstrong uwtable
define internal i32 @check_exec_env_i(i64 noundef %0, i64 noundef %1, i64 noundef %2) #0 {
  %4 = alloca i64, align 8
  %5 = alloca i64, align 8
  %6 = alloca i64, align 8
  %7 = alloca i64, align 8
  %8 = alloca i64, align 8
  %9 = alloca i64, align 8
  %10 = alloca ptr, align 8
  %11 = alloca ptr, align 8
  store i64 %0, ptr %4, align 8, !tbaa !35
  store i64 %1, ptr %5, align 8, !tbaa !35
  store i64 %2, ptr %6, align 8, !tbaa !35
  call void @llvm.lifetime.start.p0(i64 8, ptr %7) #27
  %12 = load i64, ptr %4, align 8, !tbaa !35
  store i64 %12, ptr %7, align 8, !tbaa !35
  call void @llvm.lifetime.start.p0(i64 8, ptr %8) #27
  %13 = load i64, ptr %5, align 8, !tbaa !35
  store i64 %13, ptr %8, align 8, !tbaa !35
  call void @llvm.lifetime.start.p0(i64 8, ptr %9) #27
  %14 = load i64, ptr %6, align 8, !tbaa !35
  %15 = inttoptr i64 %14 to ptr
  %16 = getelementptr i64, ptr %15, i64 0
  %17 = load i64, ptr %16, align 8, !tbaa !35
  store i64 %17, ptr %9, align 8, !tbaa !35
  call void @llvm.lifetime.start.p0(i64 8, ptr %10) #27
  %18 = load i64, ptr %6, align 8, !tbaa !35
  %19 = inttoptr i64 %18 to ptr
  %20 = getelementptr i64, ptr %19, i64 1
  store ptr %20, ptr %10, align 8, !tbaa !70
  call void @llvm.lifetime.start.p0(i64 8, ptr %11) #27
  %21 = call ptr @rb_string_value_cstr(ptr noundef %7)
  store ptr %21, ptr %11, align 8, !tbaa !64
  %22 = load ptr, ptr %11, align 8, !tbaa !64
  %23 = call ptr @strchr(ptr noundef %22, i32 noundef 61) #29
  %24 = icmp ne ptr %23, null
  br i1 %24, label %25, label %28

25:                                               ; preds = %3
  %26 = load i64, ptr @rb_eArgError, align 8, !tbaa !35
  %27 = load i64, ptr %7, align 8, !tbaa !35
  call void (i64, ptr, ...) @rb_raise(i64 noundef %26, ptr noundef @.str.192, i64 noundef %27) #30
  unreachable

28:                                               ; preds = %3
  %29 = load i64, ptr %8, align 8, !tbaa !35
  %30 = call zeroext i1 @RB_NIL_P(i64 noundef %29) #28
  br i1 %30, label %33, label %31

31:                                               ; preds = %28
  %32 = call ptr @rb_string_value_cstr(ptr noundef %8)
  br label %33

33:                                               ; preds = %31, %28
  %34 = load i64, ptr %7, align 8, !tbaa !35
  store i64 %34, ptr %7, align 8, !tbaa !35
  %35 = load i64, ptr %8, align 8, !tbaa !35
  %36 = call zeroext i1 @RB_NIL_P(i64 noundef %35) #28
  br i1 %36, label %39, label %37

37:                                               ; preds = %33
  %38 = load i64, ptr %8, align 8, !tbaa !35
  store i64 %38, ptr %8, align 8, !tbaa !35
  br label %39

39:                                               ; preds = %37, %33
  %40 = load ptr, ptr %11, align 8, !tbaa !64
  %41 = call i32 @strcmp(ptr noundef %40, ptr noundef @.str.193) #29
  %42 = icmp eq i32 %41, 0
  br i1 %42, label %43, label %46

43:                                               ; preds = %39
  %44 = load i64, ptr %8, align 8, !tbaa !35
  %45 = load ptr, ptr %10, align 8, !tbaa !70
  store i64 %44, ptr %45, align 8, !tbaa !35
  br label %46

46:                                               ; preds = %43, %39
  %47 = load i64, ptr %9, align 8, !tbaa !35
  %48 = load i64, ptr %7, align 8, !tbaa !35
  %49 = load i64, ptr %8, align 8, !tbaa !35
  %50 = call i64 @rb_assoc_new(i64 noundef %48, i64 noundef %49)
  %51 = call i64 @hide_obj(i64 noundef %50)
  %52 = call i64 @rb_ary_push(i64 noundef %47, i64 noundef %51)
  call void @llvm.lifetime.end.p0(i64 8, ptr %11) #27
  call void @llvm.lifetime.end.p0(i64 8, ptr %10) #27
  call void @llvm.lifetime.end.p0(i64 8, ptr %9) #27
  call void @llvm.lifetime.end.p0(i64 8, ptr %8) #27
  call void @llvm.lifetime.end.p0(i64 8, ptr %7) #27
  ret i32 0
}