; Function Attrs: nounwind sspstrong uwtable
define internal noundef i32 @check_exec_env_i(i64 noundef %0, i64 noundef %1, i64 noundef %2) #1 {
  %4 = alloca i64, align 8
  %5 = alloca i64, align 8
  call void @llvm.lifetime.start.p0(i64 8, ptr nonnull %4) #27
  store i64 %0, ptr %4, align 8, !tbaa !43
  call void @llvm.lifetime.start.p0(i64 8, ptr nonnull %5) #27
  store i64 %1, ptr %5, align 8, !tbaa !43
  %6 = inttoptr i64 %2 to ptr
  %7 = load i64, ptr %6, align 8, !tbaa !43
  %8 = getelementptr i8, ptr %6, i64 8
  %9 = call ptr @rb_string_value_cstr(ptr noundef nonnull %4) #27
  %10 = call ptr @strchr(ptr noundef nonnull dereferenceable(1) %9, i32 noundef 61) #28
  %.not = icmp eq ptr %10, null
  br i1 %.not, label %14, label %11

11:                                               ; preds = %3
  %12 = load i64, ptr @rb_eArgError, align 8, !tbaa !43
  %13 = load i64, ptr %4, align 8, !tbaa !43
  call void (i64, ptr, ...) @rb_raise(i64 noundef %12, ptr noundef nonnull @.str.192, i64 noundef %13) #29
  unreachable

14:                                               ; preds = %3
  %15 = icmp eq i64 %1, 4
  br i1 %15, label %18, label %16

16:                                               ; preds = %14
  %17 = call ptr @rb_string_value_cstr(ptr noundef nonnull %5) #27
  %.pre.pre = load i64, ptr %5, align 8, !tbaa !43
  br label %18

18:                                               ; preds = %16, %14
  %.pre = phi i64 [ %.pre.pre, %16 ], [ 4, %14 ]
  %19 = call i32 @strcmp(ptr noundef nonnull dereferenceable(1) %9, ptr noundef nonnull dereferenceable(5) @.str.193) #28
  %20 = icmp eq i32 %19, 0
  br i1 %20, label %21, label %22

21:                                               ; preds = %18
  store i64 %.pre, ptr %8, align 8, !tbaa !43
  br label %22

22:                                               ; preds = %21, %18
  %23 = load i64, ptr %4, align 8, !tbaa !43
  %24 = call i64 @rb_assoc_new(i64 noundef %23, i64 noundef %.pre) #27
  %25 = inttoptr i64 %24 to ptr
  %26 = getelementptr inbounds nuw i8, ptr %25, i64 8
  store i64 0, ptr %26, align 8, !tbaa !43
  %27 = call i64 @rb_ary_push(i64 noundef %7, i64 noundef %24) #27
  call void @llvm.lifetime.end.p0(i64 8, ptr nonnull %5) #27
  call void @llvm.lifetime.end.p0(i64 8, ptr nonnull %4) #27
  ret i32 0
}